; Function Attrs: mustprogress nofree norecurse nosync nounwind willreturn memory(read, inaccessiblemem: none) uwtable
define hidden noundef zeroext i1 @_ZNK10macro_util6is_addEP4expr(ptr noundef nonnull readonly align 8 captures(none) dereferenceable(320) %0, ptr noundef readonly captures(none) %1) local_unnamed_addr #7 align 2 {
  %3 = getelementptr inbounds nuw i8, ptr %1, i64 4
  %4 = load i32, ptr %3, align 4
  %5 = and i32 %4, 65535
  %6 = icmp eq i32 %5, 0
  br i1 %6, label %7, label %_ZNK14bv_recognizers9is_bv_addEPK4expr.exit

7:                                                ; preds = %2
  %8 = getelementptr inbounds nuw i8, ptr %1, i64 16
  %9 = load ptr, ptr %8, align 8, !tbaa !50
  %10 = getelementptr inbounds nuw i8, ptr %9, i64 24
  %11 = load ptr, ptr %10, align 8, !tbaa !55
  %.not.i.i.i.i = icmp eq ptr %11, null
  br i1 %.not.i.i.i.i, label %_ZNK14bv_recognizers9is_bv_addEPK4expr.exit, label %_ZNK17arith_recognizers6is_addEPK4expr.exit

_ZNK17arith_recognizers6is_addEPK4expr.exit:      ; preds = %7
  %12 = load i32, ptr %11, align 8, !tbaa !60
  %13 = icmp eq i32 %12, 5
  %14 = getelementptr inbounds nuw i8, ptr %11, i64 4
  %15 = load i32, ptr %14, align 4
  %16 = icmp eq i32 %15, 6
  %17 = select i1 %13, i1 %16, i1 false
  br i1 %17, label %_ZNK14bv_recognizers9is_bv_addEPK4expr.exit, label %.thread4

.thread4:                                         ; preds = %_ZNK17arith_recognizers6is_addEPK4expr.exit
  %.in = getelementptr inbounds nuw i8, ptr %0, i64 8
  %18 = load i32, ptr %.in, align 8, !tbaa !64
  %19 = load i32, ptr %11, align 8, !tbaa !60
  %20 = icmp eq i32 %19, %18
  %21 = getelementptr inbounds nuw i8, ptr %11, i64 4
  %22 = load i32, ptr %21, align 4
  %23 = icmp eq i32 %22, 4
  %24 = select i1 %20, i1 %23, i1 false
  br label %_ZNK14bv_recognizers9is_bv_addEPK4expr.exit

_ZNK14bv_recognizers9is_bv_addEPK4expr.exit:      ; preds = %7, %2, %.thread4, %_ZNK17arith_recognizers6is_addEPK4expr.exit
  %25 = phi i1 [ true, %_ZNK17arith_recognizers6is_addEPK4expr.exit ], [ %24, %.thread4 ], [ false, %2 ], [ false, %7 ]
  ret i1 %25
}